target datalayout = "e-m:e-p270:32:32-p271:32:32-p272:64:64-i64:64-i128:128-f80:128-n8:16:32:64-S128"
target triple = "x86_64-pc-linux-gnu"

%class.JfrStackTraceRepository = type { [2053 x ptr], i32, i32 }
%class.MutexLocker = type { %class.MutexLockerImpl }
%class.MutexLockerImpl = type { ptr }
%class.JfrStackTrace = type <{ ptr, ptr, i64, i64, i32, i32, i8, i8, i8, i8, [4 x i8] }>

@JfrStacktrace_lock = external global ptr, align 8

; Function Attrs: mustprogress nounwind uwtable
define linkonce_odr hidden void @_ZN15MutexLockerImplD2Ev(ptr noundef nonnull align 8 dereferenceable(8) %0) unnamed_addr #1 comdat align 2 {
  %2 = alloca ptr, align 8
  store ptr %0, ptr %2, align 8
  %3 = load ptr, ptr %2, align 8
  %4 = getelementptr inbounds %class.MutexLockerImpl, ptr %3, i32 0, i32 0
  %5 = load ptr, ptr %4, align 8
  %6 = icmp ne ptr %5, null
  br i1 %6, label %7, label %10

7:                                                ; preds = %1
  %8 = getelementptr inbounds %class.MutexLockerImpl, ptr %3, i32 0, i32 0
  %9 = load ptr, ptr %8, align 8
  call void @_ZN5Mutex6unlockEv(ptr noundef nonnull align 8 dereferenceable(104) %9)
  br label %10

10:                                               ; preds = %7, %1
  ret void
}

; Function Attrs: mustprogress nounwind uwtable
define linkonce_odr hidden void @_ZN15MutexLockerImplC2EP5MutexNS0_18SafepointCheckFlagE(ptr noundef nonnull align 8 dereferenceable(8) %0, ptr noundef %1, i32 noundef %2) unnamed_addr #1 comdat align 2 {
  %4 = alloca ptr, align 8
  %5 = alloca ptr, align 8
  %6 = alloca i32, align 4
  %7 = alloca i8, align 1
  store ptr %0, ptr %4, align 8
  store ptr %1, ptr %5, align 8
  store i32 %2, ptr %6, align 4
  %8 = load ptr, ptr %4, align 8
  %9 = getelementptr inbounds %class.MutexLockerImpl, ptr %8, i32 0, i32 0
  %10 = load ptr, ptr %5, align 8
  store ptr %10, ptr %9, align 8
  %11 = load i32, ptr %6, align 4
  %12 = icmp eq i32 %11, 1
  %13 = zext i1 %12 to i8
  store i8 %13, ptr %7, align 1
  %14 = getelementptr inbounds %class.MutexLockerImpl, ptr %8, i32 0, i32 0
  %15 = load ptr, ptr %14, align 8
  %16 = icmp ne ptr %15, null
  br i1 %16, label %17, label %27

17:                                               ; preds = %3
  %18 = load i8, ptr %7, align 1
  %19 = trunc i8 %18 to i1
  br i1 %19, label %20, label %23

20:                                               ; preds = %17
  %21 = getelementptr inbounds %class.MutexLockerImpl, ptr %8, i32 0, i32 0
  %22 = load ptr, ptr %21, align 8
  call void @_ZN5Mutex28lock_without_safepoint_checkEv(ptr noundef nonnull align 8 dereferenceable(104) %22)
  br label %26

23:                                               ; preds = %17
  %24 = getelementptr inbounds %class.MutexLockerImpl, ptr %8, i32 0, i32 0
  %25 = load ptr, ptr %24, align 8
  call void @_ZN5Mutex4lockEv(ptr noundef nonnull align 8 dereferenceable(104) %25)
  br label %26

26:                                               ; preds = %23, %20
  br label %27

27:                                               ; preds = %26, %3
  ret void
}

; Function Attrs: mustprogress nounwind uwtable
define linkonce_odr hidden void @_ZN11MutexLockerD2Ev(ptr noundef nonnull align 8 dereferenceable(8) %0) unnamed_addr #1 comdat align 2 {
  %2 = alloca ptr, align 8
  store ptr %0, ptr %2, align 8
  %3 = load ptr, ptr %2, align 8
  call void @_ZN15MutexLockerImplD2Ev(ptr noundef nonnull align 8 dereferenceable(8) %3) #9
  ret void
}

; Function Attrs: mustprogress nounwind uwtable
define linkonce_odr hidden noundef zeroext i1 @_ZNK13JfrStackTrace12should_writeEv(ptr noundef nonnull align 8 dereferenceable(44) %0) #1 comdat align 2 {
  %2 = alloca ptr, align 8
  store ptr %0, ptr %2, align 8
  %3 = load ptr, ptr %2, align 8
  %4 = getelementptr inbounds %class.JfrStackTrace, ptr %3, i32 0, i32 9
  %5 = load i8, ptr %4, align 1
  %6 = trunc i8 %5 to i1
  %7 = xor i1 %6, true
  ret i1 %7
}

; Function Attrs: mustprogress nounwind uwtable
define linkonce_odr hidden noundef ptr @_ZNK13JfrStackTrace4nextEv(ptr noundef nonnull align 8 dereferenceable(44) %0) #1 comdat align 2 {
  %2 = alloca ptr, align 8
  store ptr %0, ptr %2, align 8
  %3 = load ptr, ptr %2, align 8
  %4 = getelementptr inbounds %class.JfrStackTrace, ptr %3, i32 0, i32 0
  %5 = load ptr, ptr %4, align 8
  ret ptr %5
}

; Function Attrs: mustprogress nounwind uwtable
define linkonce_odr hidden void @_ZN11MutexLockerC2EP5MutexNS0_18SafepointCheckFlagE(ptr noundef nonnull align 8 dereferenceable(8) %0, ptr noundef %1, i32 noundef %2) unnamed_addr #1 comdat align 2 {
  %4 = alloca ptr, align 8
  %5 = alloca ptr, align 8
  %6 = alloca i32, align 4
  store ptr %0, ptr %4, align 8
  store ptr %1, ptr %5, align 8
  store i32 %2, ptr %6, align 4
  %7 = load ptr, ptr %4, align 8
  %8 = load ptr, ptr %5, align 8
  %9 = load i32, ptr %6, align 4
  call void @_ZN15MutexLockerImplC2EP5MutexNS0_18SafepointCheckFlagE(ptr noundef nonnull align 8 dereferenceable(8) %7, ptr noundef %8, i32 noundef %9)
  ret void
}

; Function Attrs: mustprogress nounwind uwtable
define hidden noundef i64 @_ZN23JfrStackTraceRepository5writeER14JfrChunkWriterb(ptr noundef nonnull align 8 dereferenceable(16432) %0, ptr noundef nonnull align 8 dereferenceable(88) %1, i1 noundef zeroext %2) #1 align 2 {
  %4 = alloca i64, align 8
  %5 = alloca ptr, align 8
  %6 = alloca ptr, align 8
  %7 = alloca i8, align 1
  %8 = alloca %class.MutexLocker, align 8
  %9 = alloca i32, align 4
  %10 = alloca i32, align 4
  %11 = alloca i32, align 4
  %12 = alloca ptr, align 8
  %13 = alloca ptr, align 8
  store ptr %0, ptr %5, align 8
  store ptr %1, ptr %6, align 8
  %14 = zext i1 %2 to i8
  store i8 %14, ptr %7, align 1
  %15 = load ptr, ptr %5, align 8
  %16 = load ptr, ptr @JfrStacktrace_lock, align 8
  call void @_ZN11MutexLockerC2EP5MutexNS0_18SafepointCheckFlagE(ptr noundef nonnull align 8 dereferenceable(8) %8, ptr noundef %16, i32 noundef 1)
  %17 = getelementptr inbounds %class.JfrStackTraceRepository, ptr %15, i32 0, i32 2
  %18 = load i32, ptr %17, align 4
  %19 = icmp eq i32 %18, 0
  br i1 %19, label %20, label %21

20:                                               ; preds = %3
  store i64 0, ptr %4, align 8
  store i32 1, ptr %9, align 4
  br label %71

21:                                               ; preds = %3
  store i32 0, ptr %10, align 4
  store i32 0, ptr %11, align 4
  br label %22

22:                                               ; preds = %55, %21
  %23 = load i32, ptr %11, align 4
  %24 = icmp ult i32 %23, 2053
  br i1 %24, label %25, label %58

25:                                               ; preds = %22
  %26 = getelementptr inbounds %class.JfrStackTraceRepository, ptr %15, i32 0, i32 0
  %27 = load i32, ptr %11, align 4
  %28 = zext i32 %27 to i64
  %29 = getelementptr inbounds [2053 x ptr], ptr %26, i64 0, i64 %28
  %30 = load ptr, ptr %29, align 8
  store ptr %30, ptr %12, align 8
  br label %31

31:                                               ; preds = %52, %25
  %32 = load ptr, ptr %12, align 8
  %33 = icmp ne ptr %32, null
  br i1 %33, label %34, label %54

34:                                               ; preds = %31
  %35 = load ptr, ptr %12, align 8
  %36 = call noundef ptr @_ZNK13JfrStackTrace4nextEv(ptr noundef nonnull align 8 dereferenceable(44) %35)
  store ptr %36, ptr %13, align 8
  %37 = load ptr, ptr %12, align 8
  %38 = call noundef zeroext i1 @_ZNK13JfrStackTrace12should_writeEv(ptr noundef nonnull align 8 dereferenceable(44) %37)
  br i1 %38, label %39, label %44

39:                                               ; preds = %34
  %40 = load ptr, ptr %12, align 8
  %41 = load ptr, ptr %6, align 8
  call void @_ZNK13JfrStackTrace5writeER14JfrChunkWriter(ptr noundef nonnull align 8 dereferenceable(44) %40, ptr noundef nonnull align 8 dereferenceable(88) %41)
  %42 = load i32, ptr %10, align 4
  %43 = add nsw i32 %42, 1
  store i32 %43, ptr %10, align 4
  br label %44

44:                                               ; preds = %39, %34
  %45 = load i8, ptr %7, align 1
  %46 = trunc i8 %45 to i1
  br i1 %46, label %47, label %52

47:                                               ; preds = %44
  %48 = load ptr, ptr %12, align 8
  %49 = icmp eq ptr %48, null
  br i1 %49, label %51, label %50

50:                                               ; preds = %47
  call void @_ZN13JfrStackTraceD1Ev(ptr noundef nonnull align 8 dereferenceable(44) %48) #9
  call void @_ZN11JfrCHeapObjdlEPvm(ptr noundef %48, i64 noundef 48) #9
  br label %51

51:                                               ; preds = %50, %47
  br label %52

52:                                               ; preds = %51, %44
  %53 = load ptr, ptr %13, align 8
  store ptr %53, ptr %12, align 8
  br label %31, !llvm.loop !6

54:                                               ; preds = %31
  br label %55

55:                                               ; preds = %54
  %56 = load i32, ptr %11, align 4
  %57 = add i32 %56, 1
  store i32 %57, ptr %11, align 4
  br label %22, !llvm.loop !8

58:                                               ; preds = %22
  %59 = load i8, ptr %7, align 1
  %60 = trunc i8 %59 to i1
  br i1 %60, label %61, label %65

61:                                               ; preds = %58
  %62 = getelementptr inbounds %class.JfrStackTraceRepository, ptr %15, i32 0, i32 0
  %63 = getelementptr inbounds [2053 x ptr], ptr %62, i64 0, i64 0
  call void @llvm.memset.p0.i64(ptr align 8 %63, i8 0, i64 16424, i1 false)
  %64 = getelementptr inbounds %class.JfrStackTraceRepository, ptr %15, i32 0, i32 2
  store i32 0, ptr %64, align 4
  br label %65

65:                                               ; preds = %61, %58
  %66 = getelementptr inbounds %class.JfrStackTraceRepository, ptr %15, i32 0, i32 2
  %67 = load i32, ptr %66, align 4
  %68 = getelementptr inbounds %class.JfrStackTraceRepository, ptr %15, i32 0, i32 1
  store i32 %67, ptr %68, align 8
  %69 = load i32, ptr %10, align 4
  %70 = sext i32 %69 to i64
  store i64 %70, ptr %4, align 8
  store i32 1, ptr %9, align 4
  br label %71

71:                                               ; preds = %65, %20
  call void @_ZN11MutexLockerD2Ev(ptr noundef nonnull align 8 dereferenceable(8) %8) #9
  %72 = load i64, ptr %4, align 8
  ret i64 %72
}