; Function Attrs: mustprogress nounwind uwtable
define hidden noundef range(i64 -2147483648, 2147483648) i64 @_ZN23JfrStackTraceRepository5writeER14JfrChunkWriterb(ptr nocapture noundef nonnull align 8 dereferenceable(16432) %0, ptr noundef nonnull align 8 dereferenceable(88) %1, i1 noundef zeroext %2) local_unnamed_addr #3 align 2 {
  %4 = load ptr, ptr @JfrStacktrace_lock, align 8
  %.not.i.i = icmp eq ptr %4, null
  br i1 %.not.i.i, label %_ZN11MutexLockerC2EP5MutexNS0_18SafepointCheckFlagE.exit, label %5

5:                                                ; preds = %3
  tail call void @_ZN5Mutex28lock_without_safepoint_checkEv(ptr noundef nonnull align 8 dereferenceable(104) %4) #13
  br label %_ZN11MutexLockerC2EP5MutexNS0_18SafepointCheckFlagE.exit

_ZN11MutexLockerC2EP5MutexNS0_18SafepointCheckFlagE.exit: ; preds = %3, %5
  %6 = getelementptr inbounds i8, ptr %0, i64 16428
  %7 = load i32, ptr %6, align 4
  %8 = icmp eq i32 %7, 0
  br i1 %8, label %32, label %.preheader

.preheader:                                       ; preds = %_ZN11MutexLockerC2EP5MutexNS0_18SafepointCheckFlagE.exit
  br i1 %2, label %.preheader.split.us, label %.preheader.split

.preheader.split.us:                              ; preds = %.preheader, %._crit_edge.split.us.us
  %indvars.iv27 = phi i64 [ %indvars.iv.next28, %._crit_edge.split.us.us ], [ 0, %.preheader ]
  %.01722.us = phi i32 [ %.1.lcssa.us, %._crit_edge.split.us.us ], [ 0, %.preheader ]
  %9 = getelementptr inbounds [2053 x ptr], ptr %0, i64 0, i64 %indvars.iv27
  %10 = load ptr, ptr %9, align 8
  %.not19.us = icmp eq ptr %10, null
  br i1 %.not19.us, label %._crit_edge.split.us.us, label %.lr.ph.us

._crit_edge.split.us.us:                          ; preds = %17, %.preheader.split.us
  %.1.lcssa.us = phi i32 [ %.01722.us, %.preheader.split.us ], [ %.2.us.us, %17 ]
  %indvars.iv.next28 = add nuw nsw i64 %indvars.iv27, 1
  %exitcond30.not = icmp eq i64 %indvars.iv.next28, 2053
  br i1 %exitcond30.not, label %.split.us, label %.preheader.split.us, !llvm.loop !6

.lr.ph.us:                                        ; preds = %.preheader.split.us, %17
  %.01521.us.us = phi ptr [ %11, %17 ], [ %10, %.preheader.split.us ]
  %.120.us.us = phi i32 [ %.2.us.us, %17 ], [ %.01722.us, %.preheader.split.us ]
  %11 = load ptr, ptr %.01521.us.us, align 8
  %12 = getelementptr inbounds i8, ptr %.01521.us.us, i64 43
  %13 = load i8, ptr %12, align 1
  %14 = trunc i8 %13 to i1
  br i1 %14, label %17, label %15

15:                                               ; preds = %.lr.ph.us
  tail call void @_ZNK13JfrStackTrace5writeER14JfrChunkWriter(ptr noundef nonnull align 8 dereferenceable(44) %.01521.us.us, ptr noundef nonnull align 8 dereferenceable(88) %1) #13
  %16 = add nsw i32 %.120.us.us, 1
  br label %17

17:                                               ; preds = %15, %.lr.ph.us
  %.2.us.us = phi i32 [ %16, %15 ], [ %.120.us.us, %.lr.ph.us ]
  tail call void @_ZN13JfrStackTraceD1Ev(ptr noundef nonnull align 8 dereferenceable(44) %.01521.us.us) #13
  tail call void @_ZN11JfrCHeapObjdlEPvm(ptr noundef nonnull %.01521.us.us, i64 noundef 48) #13
  %.not.us.us = icmp eq ptr %11, null
  br i1 %.not.us.us, label %._crit_edge.split.us.us, label %.lr.ph.us, !llvm.loop !8

.preheader.split:                                 ; preds = %.preheader, %._crit_edge.split
  %indvars.iv = phi i64 [ %indvars.iv.next, %._crit_edge.split ], [ 0, %.preheader ]
  %.01722 = phi i32 [ %.1.lcssa, %._crit_edge.split ], [ 0, %.preheader ]
  %18 = getelementptr inbounds [2053 x ptr], ptr %0, i64 0, i64 %indvars.iv
  %19 = load ptr, ptr %18, align 8
  %.not19 = icmp eq ptr %19, null
  br i1 %.not19, label %._crit_edge.split, label %.lr.ph

.lr.ph:                                           ; preds = %.preheader.split, %26
  %.01521 = phi ptr [ %20, %26 ], [ %19, %.preheader.split ]
  %.120 = phi i32 [ %.2, %26 ], [ %.01722, %.preheader.split ]
  %20 = load ptr, ptr %.01521, align 8
  %21 = getelementptr inbounds i8, ptr %.01521, i64 43
  %22 = load i8, ptr %21, align 1
  %23 = trunc i8 %22 to i1
  br i1 %23, label %26, label %24

24:                                               ; preds = %.lr.ph
  tail call void @_ZNK13JfrStackTrace5writeER14JfrChunkWriter(ptr noundef nonnull align 8 dereferenceable(44) %.01521, ptr noundef nonnull align 8 dereferenceable(88) %1) #13
  %25 = add nsw i32 %.120, 1
  br label %26

26:                                               ; preds = %24, %.lr.ph
  %.2 = phi i32 [ %25, %24 ], [ %.120, %.lr.ph ]
  %.not = icmp eq ptr %20, null
  br i1 %.not, label %._crit_edge.split, label %.lr.ph, !llvm.loop !8

._crit_edge.split:                                ; preds = %26, %.preheader.split
  %.1.lcssa = phi i32 [ %.01722, %.preheader.split ], [ %.2, %26 ]
  %indvars.iv.next = add nuw nsw i64 %indvars.iv, 1
  %exitcond.not = icmp eq i64 %indvars.iv.next, 2053
  br i1 %exitcond.not, label %.split.us, label %.preheader.split, !llvm.loop !6

.split.us:                                        ; preds = %._crit_edge.split, %._crit_edge.split.us.us
  %.us-phi24 = phi i32 [ %.1.lcssa.us, %._crit_edge.split.us.us ], [ %.1.lcssa, %._crit_edge.split ]
  br i1 %2, label %27, label %.split.us._crit_edge

.split.us._crit_edge:                             ; preds = %.split.us
  %.pre = load i32, ptr %6, align 4
  br label %28

27:                                               ; preds = %.split.us
  tail call void @llvm.memset.p0.i64(ptr noundef nonnull align 8 dereferenceable(16424) %0, i8 0, i64 16424, i1 false)
  store i32 0, ptr %6, align 4
  br label %28

28:                                               ; preds = %.split.us._crit_edge, %27
  %29 = phi i32 [ %.pre, %.split.us._crit_edge ], [ 0, %27 ]
  %30 = getelementptr inbounds i8, ptr %0, i64 16424
  store i32 %29, ptr %30, align 8
  %31 = sext i32 %.us-phi24 to i64
  br label %32

32:                                               ; preds = %_ZN11MutexLockerC2EP5MutexNS0_18SafepointCheckFlagE.exit, %28
  %.0 = phi i64 [ %31, %28 ], [ 0, %_ZN11MutexLockerC2EP5MutexNS0_18SafepointCheckFlagE.exit ]
  br i1 %.not.i.i, label %_ZN11MutexLockerD2Ev.exit, label %33

33:                                               ; preds = %32
  tail call void @_ZN5Mutex6unlockEv(ptr noundef nonnull align 8 dereferenceable(104) %4) #13
  br label %_ZN11MutexLockerD2Ev.exit

_ZN11MutexLockerD2Ev.exit:                        ; preds = %32, %33
  ret i64 %.0
}